; Function Attrs: mustprogress uwtable
define void @_ZNK2cv10MediaFrame10blobParamsEv(ptr dead_on_unwind noalias writable sret(%"class.cv::util::any") align 8 %0, ptr noundef nonnull readonly align 8 captures(none) dereferenceable(16) %1) local_unnamed_addr #4 align 2 {
  %3 = load ptr, ptr %1, align 8, !tbaa !8
  %4 = load ptr, ptr %3, align 8, !tbaa !3
  %5 = load ptr, ptr %4, align 8, !tbaa !14
  %6 = getelementptr inbounds nuw i8, ptr %5, i64 32
  %7 = load ptr, ptr %6, align 8
  tail call void %7(ptr dead_on_unwind writable sret(%"class.cv::util::any") align 8 %0, ptr noundef nonnull align 8 dereferenceable(8) %4)
  ret void
}